target datalayout = "e-m:e-p270:32:32-p271:32:32-p272:64:64-i64:64-i128:128-f80:128-n8:16:32:64-S128"
target triple = "x86_64-pc-linux-gnu"

%struct.UCharIterator = type { ptr, i32, i32, i32, i32, i32, ptr, ptr, ptr, ptr, ptr, ptr, ptr, ptr, ptr, ptr }

; Function Attrs: mustprogress uwtable
define i32 @u_strCompareIter_77(ptr noundef %0, ptr noundef %1, i8 noundef signext %2) #0 {
  %4 = alloca i32, align 4
  %5 = alloca ptr, align 8
  %6 = alloca ptr, align 8
  %7 = alloca i8, align 1
  %8 = alloca i32, align 4
  %9 = alloca i32, align 4
  %10 = alloca i32, align 4
  store ptr %0, ptr %5, align 8, !tbaa !51
  store ptr %1, ptr %6, align 8, !tbaa !51
  store i8 %2, ptr %7, align 1, !tbaa !30
  call void @llvm.lifetime.start.p0(i64 4, ptr %8) #7
  call void @llvm.lifetime.start.p0(i64 4, ptr %9) #7
  %11 = load ptr, ptr %5, align 8, !tbaa !51
  %12 = icmp eq ptr %11, null
  br i1 %12, label %16, label %13

13:                                               ; preds = %3
  %14 = load ptr, ptr %6, align 8, !tbaa !51
  %15 = icmp eq ptr %14, null
  br i1 %15, label %16, label %17

16:                                               ; preds = %13, %3
  store i32 0, ptr %4, align 4
  store i32 1, ptr %10, align 4
  br label %131

17:                                               ; preds = %13
  %18 = load ptr, ptr %5, align 8, !tbaa !51
  %19 = load ptr, ptr %6, align 8, !tbaa !51
  %20 = icmp eq ptr %18, %19
  br i1 %20, label %21, label %22

21:                                               ; preds = %17
  store i32 0, ptr %4, align 4
  store i32 1, ptr %10, align 4
  br label %131

22:                                               ; preds = %17
  %23 = load ptr, ptr %5, align 8, !tbaa !51
  %24 = getelementptr inbounds nuw %struct.UCharIterator, ptr %23, i32 0, i32 7
  %25 = load ptr, ptr %24, align 8, !tbaa !53
  %26 = load ptr, ptr %5, align 8, !tbaa !51
  %27 = call noundef i32 %25(ptr noundef %26, i32 noundef 0, i32 noundef 0)
  %28 = load ptr, ptr %6, align 8, !tbaa !51
  %29 = getelementptr inbounds nuw %struct.UCharIterator, ptr %28, i32 0, i32 7
  %30 = load ptr, ptr %29, align 8, !tbaa !53
  %31 = load ptr, ptr %6, align 8, !tbaa !51
  %32 = call noundef i32 %30(ptr noundef %31, i32 noundef 0, i32 noundef 0)
  br label %33

33:                                               ; preds = %52, %22
  %34 = load ptr, ptr %5, align 8, !tbaa !51
  %35 = getelementptr inbounds nuw %struct.UCharIterator, ptr %34, i32 0, i32 11
  %36 = load ptr, ptr %35, align 8, !tbaa !55
  %37 = load ptr, ptr %5, align 8, !tbaa !51
  %38 = call noundef i32 %36(ptr noundef %37)
  store i32 %38, ptr %8, align 4, !tbaa !8
  %39 = load ptr, ptr %6, align 8, !tbaa !51
  %40 = getelementptr inbounds nuw %struct.UCharIterator, ptr %39, i32 0, i32 11
  %41 = load ptr, ptr %40, align 8, !tbaa !55
  %42 = load ptr, ptr %6, align 8, !tbaa !51
  %43 = call noundef i32 %41(ptr noundef %42)
  store i32 %43, ptr %9, align 4, !tbaa !8
  %44 = load i32, ptr %8, align 4, !tbaa !8
  %45 = load i32, ptr %9, align 4, !tbaa !8
  %46 = icmp ne i32 %44, %45
  br i1 %46, label %47, label %48

47:                                               ; preds = %33
  br label %53

48:                                               ; preds = %33
  %49 = load i32, ptr %8, align 4, !tbaa !8
  %50 = icmp eq i32 %49, -1
  br i1 %50, label %51, label %52

51:                                               ; preds = %48
  store i32 0, ptr %4, align 4
  store i32 1, ptr %10, align 4
  br label %131

52:                                               ; preds = %48
  br label %33, !llvm.loop !56

53:                                               ; preds = %47
  %54 = load i32, ptr %8, align 4, !tbaa !8
  %55 = icmp sge i32 %54, 55296
  br i1 %55, label %56, label %127

56:                                               ; preds = %53
  %57 = load i32, ptr %9, align 4, !tbaa !8
  %58 = icmp sge i32 %57, 55296
  br i1 %58, label %59, label %127

59:                                               ; preds = %56
  %60 = load i8, ptr %7, align 1, !tbaa !30
  %61 = icmp ne i8 %60, 0
  br i1 %61, label %62, label %127

62:                                               ; preds = %59
  %63 = load i32, ptr %8, align 4, !tbaa !8
  %64 = icmp sle i32 %63, 56319
  br i1 %64, label %65, label %73

65:                                               ; preds = %62
  %66 = load ptr, ptr %5, align 8, !tbaa !51
  %67 = getelementptr inbounds nuw %struct.UCharIterator, ptr %66, i32 0, i32 10
  %68 = load ptr, ptr %67, align 8, !tbaa !57
  %69 = load ptr, ptr %5, align 8, !tbaa !51
  %70 = call noundef i32 %68(ptr noundef %69)
  %71 = and i32 %70, -1024
  %72 = icmp eq i32 %71, 56320
  br i1 %72, label %90, label %73

73:                                               ; preds = %65, %62
  %74 = load i32, ptr %8, align 4, !tbaa !8
  %75 = and i32 %74, -1024
  %76 = icmp eq i32 %75, 56320
  br i1 %76, label %77, label %91

77:                                               ; preds = %73
  %78 = load ptr, ptr %5, align 8, !tbaa !51
  %79 = getelementptr inbounds nuw %struct.UCharIterator, ptr %78, i32 0, i32 12
  %80 = load ptr, ptr %79, align 8, !tbaa !58
  %81 = load ptr, ptr %5, align 8, !tbaa !51
  %82 = call noundef i32 %80(ptr noundef %81)
  %83 = load ptr, ptr %5, align 8, !tbaa !51
  %84 = getelementptr inbounds nuw %struct.UCharIterator, ptr %83, i32 0, i32 12
  %85 = load ptr, ptr %84, align 8, !tbaa !58
  %86 = load ptr, ptr %5, align 8, !tbaa !51
  %87 = call noundef i32 %85(ptr noundef %86)
  %88 = and i32 %87, -1024
  %89 = icmp eq i32 %88, 55296
  br i1 %89, label %90, label %91

90:                                               ; preds = %77, %65
  br label %94

91:                                               ; preds = %77, %73
  %92 = load i32, ptr %8, align 4, !tbaa !8
  %93 = sub nsw i32 %92, 10240
  store i32 %93, ptr %8, align 4, !tbaa !8
  br label %94

94:                                               ; preds = %91, %90
  %95 = load i32, ptr %9, align 4, !tbaa !8
  %96 = icmp sle i32 %95, 56319
  br i1 %96, label %97, label %105

97:                                               ; preds = %94
  %98 = load ptr, ptr %6, align 8, !tbaa !51
  %99 = getelementptr inbounds nuw %struct.UCharIterator, ptr %98, i32 0, i32 10
  %100 = load ptr, ptr %99, align 8, !tbaa !57
  %101 = load ptr, ptr %6, align 8, !tbaa !51
  %102 = call noundef i32 %100(ptr noundef %101)
  %103 = and i32 %102, -1024
  %104 = icmp eq i32 %103, 56320
  br i1 %104, label %122, label %105

105:                                              ; preds = %97, %94
  %106 = load i32, ptr %9, align 4, !tbaa !8
  %107 = and i32 %106, -1024
  %108 = icmp eq i32 %107, 56320
  br i1 %108, label %109, label %123

109:                                              ; preds = %105
  %110 = load ptr, ptr %6, align 8, !tbaa !51
  %111 = getelementptr inbounds nuw %struct.UCharIterator, ptr %110, i32 0, i32 12
  %112 = load ptr, ptr %111, align 8, !tbaa !58
  %113 = load ptr, ptr %6, align 8, !tbaa !51
  %114 = call noundef i32 %112(ptr noundef %113)
  %115 = load ptr, ptr %6, align 8, !tbaa !51
  %116 = getelementptr inbounds nuw %struct.UCharIterator, ptr %115, i32 0, i32 12
  %117 = load ptr, ptr %116, align 8, !tbaa !58
  %118 = load ptr, ptr %6, align 8, !tbaa !51
  %119 = call noundef i32 %117(ptr noundef %118)
  %120 = and i32 %119, -1024
  %121 = icmp eq i32 %120, 55296
  br i1 %121, label %122, label %123

122:                                              ; preds = %109, %97
  br label %126

123:                                              ; preds = %109, %105
  %124 = load i32, ptr %9, align 4, !tbaa !8
  %125 = sub nsw i32 %124, 10240
  store i32 %125, ptr %9, align 4, !tbaa !8
  br label %126

126:                                              ; preds = %123, %122
  br label %127

127:                                              ; preds = %126, %59, %56, %53
  %128 = load i32, ptr %8, align 4, !tbaa !8
  %129 = load i32, ptr %9, align 4, !tbaa !8
  %130 = sub nsw i32 %128, %129
  store i32 %130, ptr %4, align 4
  store i32 1, ptr %10, align 4
  br label %131

131:                                              ; preds = %127, %51, %21, %16
  call void @llvm.lifetime.end.p0(i64 4, ptr %9) #7
  call void @llvm.lifetime.end.p0(i64 4, ptr %8) #7
  %132 = load i32, ptr %4, align 4
  ret i32 %132
}