; Function Attrs: mustprogress uwtable
define i32 @u_strCompareIter_77(ptr noundef %0, ptr noundef %1, i8 noundef signext %2) local_unnamed_addr #6 {
  %4 = icmp eq ptr %0, null
  %5 = icmp eq ptr %1, null
  %or.cond = or i1 %4, %5
  %6 = icmp eq ptr %0, %1
  %or.cond49 = or i1 %6, %or.cond
  br i1 %or.cond49, label %.loopexit, label %7

7:                                                ; preds = %3
  %8 = getelementptr inbounds nuw i8, ptr %0, i64 40
  %9 = load ptr, ptr %8, align 8, !tbaa !43
  %10 = tail call noundef i32 %9(ptr noundef nonnull %0, i32 noundef 0, i32 noundef 0)
  %11 = getelementptr inbounds nuw i8, ptr %1, i64 40
  %12 = load ptr, ptr %11, align 8, !tbaa !43
  %13 = tail call noundef i32 %12(ptr noundef nonnull %1, i32 noundef 0, i32 noundef 0)
  %14 = getelementptr inbounds nuw i8, ptr %0, i64 72
  %15 = getelementptr inbounds nuw i8, ptr %1, i64 72
  br label %16

16:                                               ; preds = %21, %7
  %17 = load ptr, ptr %14, align 8, !tbaa !46
  %18 = tail call noundef i32 %17(ptr noundef nonnull %0)
  %19 = load ptr, ptr %15, align 8, !tbaa !46
  %20 = tail call noundef i32 %19(ptr noundef nonnull %1)
  %.not = icmp eq i32 %18, %20
  br i1 %.not, label %21, label %23

21:                                               ; preds = %16
  %22 = icmp eq i32 %18, -1
  br i1 %22, label %.loopexit, label %16, !llvm.loop !47

23:                                               ; preds = %16
  %24 = icmp sgt i32 %18, 55295
  %25 = icmp sgt i32 %20, 55295
  %or.cond3 = and i1 %24, %25
  %26 = icmp ne i8 %2, 0
  %or.cond5 = and i1 %26, %or.cond3
  br i1 %or.cond5, label %27, label %69

27:                                               ; preds = %23
  %28 = icmp samesign ult i32 %18, 56320
  br i1 %28, label %29, label %35

29:                                               ; preds = %27
  %30 = getelementptr inbounds nuw i8, ptr %0, i64 64
  %31 = load ptr, ptr %30, align 8, !tbaa !48
  %32 = tail call noundef i32 %31(ptr noundef nonnull %0)
  %33 = and i32 %32, -1024
  %34 = icmp eq i32 %33, 56320
  br i1 %34, label %48, label %35

35:                                               ; preds = %29, %27
  %36 = and i32 %18, 2147482624
  %37 = icmp eq i32 %36, 56320
  br i1 %37, label %38, label %46

38:                                               ; preds = %35
  %39 = getelementptr inbounds nuw i8, ptr %0, i64 80
  %40 = load ptr, ptr %39, align 8, !tbaa !49
  %41 = tail call noundef i32 %40(ptr noundef nonnull %0)
  %42 = load ptr, ptr %39, align 8, !tbaa !49
  %43 = tail call noundef i32 %42(ptr noundef nonnull %0)
  %44 = and i32 %43, -1024
  %45 = icmp eq i32 %44, 55296
  br i1 %45, label %48, label %46

46:                                               ; preds = %38, %35
  %47 = add nsw i32 %18, -10240
  br label %48

48:                                               ; preds = %29, %38, %46
  %.1 = phi i32 [ %18, %29 ], [ %18, %38 ], [ %47, %46 ]
  %49 = icmp samesign ult i32 %20, 56320
  br i1 %49, label %50, label %56

50:                                               ; preds = %48
  %51 = getelementptr inbounds nuw i8, ptr %1, i64 64
  %52 = load ptr, ptr %51, align 8, !tbaa !48
  %53 = tail call noundef i32 %52(ptr noundef nonnull %1)
  %54 = and i32 %53, -1024
  %55 = icmp eq i32 %54, 56320
  br i1 %55, label %69, label %56

56:                                               ; preds = %50, %48
  %57 = and i32 %20, 2147482624
  %58 = icmp eq i32 %57, 56320
  br i1 %58, label %59, label %67

59:                                               ; preds = %56
  %60 = getelementptr inbounds nuw i8, ptr %1, i64 80
  %61 = load ptr, ptr %60, align 8, !tbaa !49
  %62 = tail call noundef i32 %61(ptr noundef nonnull %1)
  %63 = load ptr, ptr %60, align 8, !tbaa !49
  %64 = tail call noundef i32 %63(ptr noundef nonnull %1)
  %65 = and i32 %64, -1024
  %66 = icmp eq i32 %65, 55296
  br i1 %66, label %69, label %67

67:                                               ; preds = %59, %56
  %68 = add nsw i32 %20, -10240
  br label %69

69:                                               ; preds = %67, %59, %50, %23
  %.043 = phi i32 [ %.1, %50 ], [ %.1, %59 ], [ %.1, %67 ], [ %18, %23 ]
  %.0 = phi i32 [ %20, %50 ], [ %20, %59 ], [ %68, %67 ], [ %20, %23 ]
  %70 = sub nsw i32 %.043, %.0
  br label %.loopexit

.loopexit:                                        ; preds = %21, %3, %69
  %.044 = phi i32 [ %70, %69 ], [ 0, %3 ], [ 0, %21 ]
  ret i32 %.044
}